target datalayout = "e-m:e-p270:32:32-p271:32:32-p272:64:64-i64:64-i128:128-f80:128-n8:16:32:64-S128"
target triple = "x86_64-pc-linux-gnu"

%"class.llvm::SmallVectorBase.57" = type { ptr, i32, i32 }
%"class.llvm::ArrayRef.95" = type { ptr, i64 }
%"class.llvm::ArrayRef.96" = type { ptr, i64 }
%"class.llvm::IRBuilderBase" = type { %"class.llvm::SmallVector.89", ptr, %"class.llvm::ilist_iterator_w_bits", ptr, ptr, ptr, ptr, %"class.llvm::FastMathFlags", i8, i8, i8, %"class.llvm::ArrayRef" }
%"class.llvm::SmallVector.89" = type { %"class.llvm::SmallVectorImpl.90", %"struct.llvm::SmallVectorStorage.93" }
%"class.llvm::SmallVectorImpl.90" = type { %"class.llvm::SmallVectorTemplateBase.91" }
%"class.llvm::SmallVectorTemplateBase.91" = type { %"class.llvm::SmallVectorTemplateCommon.92" }
%"class.llvm::SmallVectorTemplateCommon.92" = type { %"class.llvm::SmallVectorBase.57" }
%"struct.llvm::SmallVectorStorage.93" = type { [32 x i8] }
%"class.llvm::ilist_iterator_w_bits" = type <{ ptr, i8, i8, [6 x i8] }>
%"class.llvm::FastMathFlags" = type { i32 }
%"class.llvm::ArrayRef" = type { ptr, i64 }
%"class.std::initializer_list" = type { ptr, i64 }
%"class.std::initializer_list.97" = type { ptr, i64 }

; Function Attrs: mustprogress nounwind uwtable
define linkonce_odr hidden noundef i64 @_ZNKSt16initializer_listIPN4llvm5ValueEE4sizeEv(ptr noundef nonnull align 8 dereferenceable(16) %0) #1 comdat align 2 {
  %2 = alloca ptr, align 8
  store ptr %0, ptr %2, align 8
  %3 = load ptr, ptr %2, align 8
  %4 = getelementptr inbounds nuw %"class.std::initializer_list.97", ptr %3, i32 0, i32 1
  %5 = load i64, ptr %4, align 8
  ret i64 %5
}

; Function Attrs: mustprogress nounwind uwtable
define linkonce_odr hidden noundef ptr @_ZNKSt16initializer_listIPN4llvm5ValueEE3endEv(ptr noundef nonnull align 8 dereferenceable(16) %0) #1 comdat align 2 {
  %2 = alloca ptr, align 8
  store ptr %0, ptr %2, align 8
  %3 = load ptr, ptr %2, align 8
  %4 = call noundef ptr @_ZNKSt16initializer_listIPN4llvm5ValueEE5beginEv(ptr noundef nonnull align 8 dereferenceable(16) %3) #6
  %5 = call noundef i64 @_ZNKSt16initializer_listIPN4llvm5ValueEE4sizeEv(ptr noundef nonnull align 8 dereferenceable(16) %3) #6
  %6 = getelementptr inbounds ptr, ptr %4, i64 %5
  ret ptr %6
}

; Function Attrs: mustprogress nounwind uwtable
define linkonce_odr hidden noundef ptr @_ZNKSt16initializer_listIPN4llvm5ValueEE5beginEv(ptr noundef nonnull align 8 dereferenceable(16) %0) #1 comdat align 2 {
  %2 = alloca ptr, align 8
  store ptr %0, ptr %2, align 8
  %3 = load ptr, ptr %2, align 8
  %4 = getelementptr inbounds nuw %"class.std::initializer_list.97", ptr %3, i32 0, i32 0
  %5 = load ptr, ptr %4, align 8
  ret ptr %5
}

; Function Attrs: mustprogress nounwind uwtable
define linkonce_odr hidden noundef i64 @_ZNKSt16initializer_listIPN4llvm4TypeEE4sizeEv(ptr noundef nonnull align 8 dereferenceable(16) %0) #1 comdat align 2 {
  %2 = alloca ptr, align 8
  store ptr %0, ptr %2, align 8
  %3 = load ptr, ptr %2, align 8
  %4 = getelementptr inbounds nuw %"class.std::initializer_list", ptr %3, i32 0, i32 1
  %5 = load i64, ptr %4, align 8
  ret i64 %5
}

; Function Attrs: mustprogress nounwind uwtable
define linkonce_odr hidden noundef ptr @_ZNKSt16initializer_listIPN4llvm4TypeEE3endEv(ptr noundef nonnull align 8 dereferenceable(16) %0) #1 comdat align 2 {
  %2 = alloca ptr, align 8
  store ptr %0, ptr %2, align 8
  %3 = load ptr, ptr %2, align 8
  %4 = call noundef ptr @_ZNKSt16initializer_listIPN4llvm4TypeEE5beginEv(ptr noundef nonnull align 8 dereferenceable(16) %3) #6
  %5 = call noundef i64 @_ZNKSt16initializer_listIPN4llvm4TypeEE4sizeEv(ptr noundef nonnull align 8 dereferenceable(16) %3) #6
  %6 = getelementptr inbounds ptr, ptr %4, i64 %5
  ret ptr %6
}

; Function Attrs: mustprogress nounwind uwtable
define linkonce_odr hidden noundef ptr @_ZNKSt16initializer_listIPN4llvm4TypeEE5beginEv(ptr noundef nonnull align 8 dereferenceable(16) %0) #1 comdat align 2 {
  %2 = alloca ptr, align 8
  store ptr %0, ptr %2, align 8
  %3 = load ptr, ptr %2, align 8
  %4 = getelementptr inbounds nuw %"class.std::initializer_list", ptr %3, i32 0, i32 0
  %5 = load ptr, ptr %4, align 8
  ret ptr %5
}

; Function Attrs: mustprogress nounwind uwtable
define linkonce_odr hidden void @_ZN4llvm8ArrayRefIPNS_5ValueEEC2ERKSt16initializer_listIS2_E(ptr noundef nonnull align 8 dereferenceable(16) %0, ptr noundef nonnull align 8 dereferenceable(16) %1) unnamed_addr #1 comdat align 2 {
  %3 = alloca ptr, align 8
  %4 = alloca ptr, align 8
  store ptr %0, ptr %3, align 8
  store ptr %1, ptr %4, align 8
  %5 = load ptr, ptr %3, align 8
  %6 = getelementptr inbounds nuw %"class.llvm::ArrayRef.96", ptr %5, i32 0, i32 0
  %7 = load ptr, ptr %4, align 8
  %8 = call noundef ptr @_ZNKSt16initializer_listIPN4llvm5ValueEE5beginEv(ptr noundef nonnull align 8 dereferenceable(16) %7) #6
  %9 = load ptr, ptr %4, align 8
  %10 = call noundef ptr @_ZNKSt16initializer_listIPN4llvm5ValueEE3endEv(ptr noundef nonnull align 8 dereferenceable(16) %9) #6
  %11 = icmp eq ptr %8, %10
  br i1 %11, label %12, label %13

12:                                               ; preds = %2
  br label %16

13:                                               ; preds = %2
  %14 = load ptr, ptr %4, align 8
  %15 = call noundef ptr @_ZNKSt16initializer_listIPN4llvm5ValueEE5beginEv(ptr noundef nonnull align 8 dereferenceable(16) %14) #6
  br label %16

16:                                               ; preds = %13, %12
  %17 = phi ptr [ null, %12 ], [ %15, %13 ]
  store ptr %17, ptr %6, align 8
  %18 = getelementptr inbounds nuw %"class.llvm::ArrayRef.96", ptr %5, i32 0, i32 1
  %19 = load ptr, ptr %4, align 8
  %20 = call noundef i64 @_ZNKSt16initializer_listIPN4llvm5ValueEE4sizeEv(ptr noundef nonnull align 8 dereferenceable(16) %19) #6
  store i64 %20, ptr %18, align 8
  ret void
}

; Function Attrs: mustprogress nounwind uwtable
define linkonce_odr hidden void @_ZN4llvm8ArrayRefIPNS_4TypeEEC2ERKSt16initializer_listIS2_E(ptr noundef nonnull align 8 dereferenceable(16) %0, ptr noundef nonnull align 8 dereferenceable(16) %1) unnamed_addr #1 comdat align 2 {
  %3 = alloca ptr, align 8
  %4 = alloca ptr, align 8
  store ptr %0, ptr %3, align 8
  store ptr %1, ptr %4, align 8
  %5 = load ptr, ptr %3, align 8
  %6 = getelementptr inbounds nuw %"class.llvm::ArrayRef.95", ptr %5, i32 0, i32 0
  %7 = load ptr, ptr %4, align 8
  %8 = call noundef ptr @_ZNKSt16initializer_listIPN4llvm4TypeEE5beginEv(ptr noundef nonnull align 8 dereferenceable(16) %7) #6
  %9 = load ptr, ptr %4, align 8
  %10 = call noundef ptr @_ZNKSt16initializer_listIPN4llvm4TypeEE3endEv(ptr noundef nonnull align 8 dereferenceable(16) %9) #6
  %11 = icmp eq ptr %8, %10
  br i1 %11, label %12, label %13

12:                                               ; preds = %2
  br label %16

13:                                               ; preds = %2
  %14 = load ptr, ptr %4, align 8
  %15 = call noundef ptr @_ZNKSt16initializer_listIPN4llvm4TypeEE5beginEv(ptr noundef nonnull align 8 dereferenceable(16) %14) #6
  br label %16

16:                                               ; preds = %13, %12
  %17 = phi ptr [ null, %12 ], [ %15, %13 ]
  store ptr %17, ptr %6, align 8
  %18 = getelementptr inbounds nuw %"class.llvm::ArrayRef.95", ptr %5, i32 0, i32 1
  %19 = load ptr, ptr %4, align 8
  %20 = call noundef i64 @_ZNKSt16initializer_listIPN4llvm4TypeEE4sizeEv(ptr noundef nonnull align 8 dereferenceable(16) %19) #6
  store i64 %20, ptr %18, align 8
  ret void
}

; Function Attrs: mustprogress nounwind uwtable
define linkonce_odr hidden noundef ptr @_ZN4llvm13IRBuilderBase8getPtrTyEj(ptr noundef nonnull align 8 dereferenceable(128) %0, i32 noundef %1) #1 comdat align 2 {
  %3 = alloca ptr, align 8
  %4 = alloca i32, align 4
  store ptr %0, ptr %3, align 8
  store i32 %1, ptr %4, align 4
  %5 = load ptr, ptr %3, align 8
  %6 = getelementptr inbounds nuw %"class.llvm::IRBuilderBase", ptr %5, i32 0, i32 3
  %7 = load ptr, ptr %6, align 8
  %8 = load i32, ptr %4, align 4
  %9 = call noundef ptr @_ZN4llvm11PointerType3getERNS_11LLVMContextEj(ptr noundef nonnull align 8 dereferenceable(8) %7, i32 noundef %8)
  ret ptr %9
}

; Function Attrs: mustprogress nounwind uwtable
define dso_local noundef ptr @_ZN4llvm10emitStpCpyEPNS_5ValueES1_RNS_13IRBuilderBaseEPKNS_17TargetLibraryInfoE(ptr noundef %0, ptr noundef %1, ptr noundef nonnull align 8 dereferenceable(128) %2, ptr noundef %3) #1 {
  %5 = alloca ptr, align 8
  %6 = alloca ptr, align 8
  %7 = alloca ptr, align 8
  %8 = alloca ptr, align 8
  %9 = alloca ptr, align 8
  %10 = alloca %"class.llvm::ArrayRef.95", align 8
  %11 = alloca %"class.std::initializer_list", align 8
  %12 = alloca [2 x ptr], align 8
  %13 = alloca %"class.llvm::ArrayRef.96", align 8
  %14 = alloca %"class.std::initializer_list.97", align 8
  %15 = alloca [2 x ptr], align 8
  store ptr %0, ptr %5, align 8
  store ptr %1, ptr %6, align 8
  store ptr %2, ptr %7, align 8
  store ptr %3, ptr %8, align 8
  %16 = load ptr, ptr %7, align 8
  %17 = call noundef ptr @_ZN4llvm13IRBuilderBase8getPtrTyEj(ptr noundef nonnull align 8 dereferenceable(128) %16, i32 noundef 0)
  store ptr %17, ptr %9, align 8
  %18 = load ptr, ptr %9, align 8
  %19 = load ptr, ptr %9, align 8
  store ptr %19, ptr %12, align 8
  %20 = getelementptr inbounds ptr, ptr %12, i64 1
  %21 = load ptr, ptr %9, align 8
  store ptr %21, ptr %20, align 8
  %22 = getelementptr inbounds nuw %"class.std::initializer_list", ptr %11, i32 0, i32 0
  store ptr %12, ptr %22, align 8
  %23 = getelementptr inbounds nuw %"class.std::initializer_list", ptr %11, i32 0, i32 1
  store i64 2, ptr %23, align 8
  call void @_ZN4llvm8ArrayRefIPNS_4TypeEEC2ERKSt16initializer_listIS2_E(ptr noundef nonnull align 8 dereferenceable(16) %10, ptr noundef nonnull align 8 dereferenceable(16) %11)
  %24 = load ptr, ptr %5, align 8
  store ptr %24, ptr %15, align 8
  %25 = getelementptr inbounds ptr, ptr %15, i64 1
  %26 = load ptr, ptr %6, align 8
  store ptr %26, ptr %25, align 8
  %27 = getelementptr inbounds nuw %"class.std::initializer_list.97", ptr %14, i32 0, i32 0
  store ptr %15, ptr %27, align 8
  %28 = getelementptr inbounds nuw %"class.std::initializer_list.97", ptr %14, i32 0, i32 1
  store i64 2, ptr %28, align 8
  call void @_ZN4llvm8ArrayRefIPNS_5ValueEEC2ERKSt16initializer_listIS2_E(ptr noundef nonnull align 8 dereferenceable(16) %13, ptr noundef nonnull align 8 dereferenceable(16) %14)
  %29 = load ptr, ptr %7, align 8
  %30 = load ptr, ptr %8, align 8
  %31 = getelementptr inbounds nuw { ptr, i64 }, ptr %10, i32 0, i32 0
  %32 = load ptr, ptr %31, align 8
  %33 = getelementptr inbounds nuw { ptr, i64 }, ptr %10, i32 0, i32 1
  %34 = load i64, ptr %33, align 8
  %35 = getelementptr inbounds nuw { ptr, i64 }, ptr %13, i32 0, i32 0
  %36 = load ptr, ptr %35, align 8
  %37 = getelementptr inbounds nuw { ptr, i64 }, ptr %13, i32 0, i32 1
  %38 = load i64, ptr %37, align 8
  %39 = call noundef ptr @_ZL11emitLibCallN4llvm7LibFuncEPNS_4TypeENS_8ArrayRefIS2_EENS3_IPNS_5ValueEEERNS_13IRBuilderBaseEPKNS_17TargetLibraryInfoEb(i32 noundef 434, ptr noundef %18, ptr %32, i64 %34, ptr %36, i64 %38, ptr noundef nonnull align 8 dereferenceable(128) %29, ptr noundef %30, i1 noundef zeroext false)
  ret ptr %39
}